; Function Attrs: mustprogress uwtable
define void @_ZNK6casadi8OptiNode24assert_only_opti_symbolsERKNS_2MXE(ptr noundef nonnull align 8 dereferenceable(672) %0, ptr noundef nonnull align 8 dereferenceable(8) %1) local_unnamed_addr #3 align 2 personality ptr @__gxx_personality_v0 {
  %3 = alloca %"class.std::vector.11", align 8
  call void @_ZN6casadi2MX6symvarERKS0_(ptr dead_on_unwind nonnull writable sret(%"class.std::vector.11") align 8 %3, ptr noundef nonnull align 8 dereferenceable(8) %1)
  %4 = load ptr, ptr %3, align 8
  %5 = getelementptr inbounds i8, ptr %3, i64 8
  %6 = load ptr, ptr %5, align 8
  %.not9 = icmp eq ptr %4, %6
  br i1 %.not9, label %_ZSt8_DestroyIPN6casadi2MXES1_EvT_S3_RSaIT0_E.exit.i, label %.lr.ph

.lr.ph:                                           ; preds = %2, %7
  %.sroa.06.010 = phi ptr [ %8, %7 ], [ %4, %2 ]
  invoke void @_ZNK6casadi8OptiNode10assert_hasERKNS_2MXE(ptr noundef nonnull align 8 dereferenceable(672) %0, ptr noundef nonnull align 8 dereferenceable(8) %.sroa.06.010)
          to label %7 unwind label %9

7:                                                ; preds = %.lr.ph
  %8 = getelementptr inbounds i8, ptr %.sroa.06.010, i64 8
  %.not = icmp eq ptr %8, %6
  br i1 %.not, label %._crit_edge, label %.lr.ph

9:                                                ; preds = %.lr.ph
  %10 = landingpad { ptr, i32 }
          cleanup
  call void @_ZNSt6vectorIN6casadi2MXESaIS1_EED2Ev(ptr noundef nonnull align 8 dereferenceable(24) %3) #21
  resume { ptr, i32 } %10

._crit_edge:                                      ; preds = %7
  %.pre = load ptr, ptr %3, align 8
  %.pre11 = load ptr, ptr %5, align 8
  %.not4.i.i.i.i = icmp eq ptr %.pre, %.pre11
  br i1 %.not4.i.i.i.i, label %_ZSt8_DestroyIPN6casadi2MXES1_EvT_S3_RSaIT0_E.exit.i, label %.lr.ph.i.i.i.i

.lr.ph.i.i.i.i:                                   ; preds = %._crit_edge, %.lr.ph.i.i.i.i
  %.05.i.i.i.i = phi ptr [ %11, %.lr.ph.i.i.i.i ], [ %.pre, %._crit_edge ]
  call void @_ZN6casadi2MXD1Ev(ptr noundef nonnull align 8 dereferenceable(8) %.05.i.i.i.i) #21
  %11 = getelementptr inbounds i8, ptr %.05.i.i.i.i, i64 8
  %.not.i.i.i.i = icmp eq ptr %11, %.pre11
  br i1 %.not.i.i.i.i, label %_ZSt8_DestroyIPN6casadi2MXES1_EvT_S3_RSaIT0_E.exitthread-pre-split.i, label %.lr.ph.i.i.i.i, !llvm.loop !36

_ZSt8_DestroyIPN6casadi2MXES1_EvT_S3_RSaIT0_E.exitthread-pre-split.i: ; preds = %.lr.ph.i.i.i.i
  %.pr.i = load ptr, ptr %3, align 8
  br label %_ZSt8_DestroyIPN6casadi2MXES1_EvT_S3_RSaIT0_E.exit.i

_ZSt8_DestroyIPN6casadi2MXES1_EvT_S3_RSaIT0_E.exit.i: ; preds = %2, %_ZSt8_DestroyIPN6casadi2MXES1_EvT_S3_RSaIT0_E.exitthread-pre-split.i, %._crit_edge
  %12 = phi ptr [ %.pr.i, %_ZSt8_DestroyIPN6casadi2MXES1_EvT_S3_RSaIT0_E.exitthread-pre-split.i ], [ %.pre11, %._crit_edge ], [ %4, %2 ]
  %.not.i.i.i = icmp eq ptr %12, null
  br i1 %.not.i.i.i, label %_ZNSt6vectorIN6casadi2MXESaIS1_EED2Ev.exit, label %13

13:                                               ; preds = %_ZSt8_DestroyIPN6casadi2MXES1_EvT_S3_RSaIT0_E.exit.i
  call void @_ZdlPv(ptr noundef nonnull %12) #22
  br label %_ZNSt6vectorIN6casadi2MXESaIS1_EED2Ev.exit

_ZNSt6vectorIN6casadi2MXESaIS1_EED2Ev.exit:       ; preds = %_ZSt8_DestroyIPN6casadi2MXES1_EvT_S3_RSaIT0_E.exit.i, %13
  ret void
}